; Function Attrs: nounwind uwtable
define hidden void @zend_accel_blacklist_shutdown(ptr nocapture noundef %0) local_unnamed_addr #0 {
  %2 = load ptr, ptr %0, align 8
  %.not = icmp eq ptr %2, null
  br i1 %.not, label %.loopexit, label %3

3:                                                ; preds = %1
  %4 = getelementptr inbounds i8, ptr %0, i64 12
  %5 = load i32, ptr %4, align 4
  %6 = sext i32 %5 to i64
  %7 = getelementptr inbounds %struct._zend_blacklist_entry, ptr %2, i64 %6
  %8 = icmp sgt i32 %5, 0
  br i1 %8, label %.lr.ph, label %._crit_edge

.lr.ph:                                           ; preds = %3, %.lr.ph
  %.01722 = phi ptr [ %10, %.lr.ph ], [ %2, %3 ]
  %9 = load ptr, ptr %.01722, align 8
  tail call void @free(ptr noundef %9) #13
  %10 = getelementptr inbounds i8, ptr %.01722, i64 16
  %11 = icmp ult ptr %10, %7
  br i1 %11, label %.lr.ph, label %._crit_edge.loopexit

._crit_edge.loopexit:                             ; preds = %.lr.ph
  %.pre = load ptr, ptr %0, align 8
  br label %._crit_edge

._crit_edge:                                      ; preds = %._crit_edge.loopexit, %3
  %12 = phi ptr [ %.pre, %._crit_edge.loopexit ], [ %2, %3 ]
  tail call void @free(ptr noundef %12) #13
  store ptr null, ptr %0, align 8
  %13 = getelementptr inbounds i8, ptr %0, i64 16
  %14 = load ptr, ptr %13, align 8
  %.not20 = icmp eq ptr %14, null
  br i1 %.not20, label %.loopexit, label %.preheader

.preheader:                                       ; preds = %._crit_edge, %.preheader
  %.023 = phi ptr [ %17, %.preheader ], [ %14, %._crit_edge ]
  %15 = load ptr, ptr %.023, align 8
  tail call void @php_pcre2_code_free(ptr noundef %15) #13
  %16 = getelementptr inbounds i8, ptr %.023, i64 8
  %17 = load ptr, ptr %16, align 8
  tail call void @free(ptr noundef nonnull %.023) #13
  %.not21 = icmp eq ptr %17, null
  br i1 %.not21, label %.loopexit, label %.preheader

.loopexit:                                        ; preds = %.preheader, %1, %._crit_edge
  ret void
}